
 Start  Stop   Length Name               Class

 00000H 00EA9H 00EAAH ConfigureFrinj     CODE
 00EB0H 00EB0H 00000H Dos                CODE
 00EB0H 00EB0H 00000H Strings            CODE
 00EB0H 01161H 002B2H Win                CODE
 01170H 0173DH 005CEH Crt                CODE
 01740H 02441H 00D02H System             CODE
 02450H 05529H 030DAH DATA               DATA
 05530H 05CFFH 007D0H STACK              STACK
 05D00H 05D00H 00000H HEAP               HEAP

  Address         Publics by Value

 0000:0000       HexWord
 0000:0147       getsoundcardname
 0000:0305       titlemessage
 0000:0512       display
 0000:07F5       changevalue
 0000:08FE       addcursor
 0000:0A6F       subcursor
 0000:0BE0       mainloop
 0000:0C7B       errorhandler
 0000:0CC3       loadconfigfile
 0000:0D95       saveconfigfile
 0000:0E2F       @
 00EB:0000       FrameWin
 00EB:0171       WriteStr
 00EB:0184       WriteChar
 00EB:0194       FillWin
 00EB:0199       ReadWin
 00EB:019E       WriteWin
 00EB:02A3       WinSize
 0117:000D       @
 0117:0152       TextMode
 0117:0167       Window
 0117:01A7       ClrScr
 0117:01C1       ClrEol
 0117:01D5       InsLine
 0117:01DA       DelLine
 0117:01FA       GotoXY
 0117:0226       WhereX
 0117:0232       WhereY
 0117:023E       TextColor
 0117:0258       TextBackground
 0117:0270       LowVideo
 0117:0276       HighVideo
 0117:027C       NormVideo
 0117:0283       Sound
 0117:02B0       NoSound
 0117:02B7       KeyPressed
 0117:02C9       ReadKey
 0117:02EB       AssignCrt
 0245:0002       validports
 0245:00A2       validirqs
 0245:0156       validdmas
 0245:01DE       SingleFrame
 0245:01E6       DoubleFrame
 0245:01EE       OvrCodeList
 0245:01F0       OvrHeapSize
 0245:01F2       OvrDebugPtr
 0245:01F6       OvrHeapOrg
 0245:01F8       OvrHeapPtr
 0245:01FA       OvrHeapEnd
 0245:01FC       OvrLoadList
 0245:01FE       OvrDosHandle
 0245:0200       OvrEmsHandle
 0245:0202       HeapOrg
 0245:0206       HeapPtr
 0245:020A       HeapEnd
 0245:020E       FreeList
 0245:0212       FreeZero
 0245:0216       HeapError
 0245:021A       ExitProc
 0245:021E       ExitCode
 0245:0220       ErrorAddr
 0245:0224       PrefixSeg
 0245:0226       StackLimit
 0245:0228       InOutRes
 0245:022A       RandSeed
 0245:022E       SelectorInc
 0245:0230       Seg0040
 0245:0232       SegA000
 0245:0234       SegB000
 0245:0236       SegB800
 0245:0238       Test8086
 0245:0239       Test8087
 0245:023A       FileMode
 0245:023E       done
 0245:0240       cf
 0245:0250       ans
 0245:0252       str1
 0245:0266       cursor
 0245:0267       i
 0245:0268       head
 0245:1872       scrambled
 0245:2E7C       CheckBreak
 0245:2E7D       CheckEOF
 0245:2E7E       DirectVideo
 0245:2E7F       CheckSnow
 0245:2E80       LastMode
 0245:2E82       TextAttr
 0245:2E84       WindMin
 0245:2E86       WindMax
 0245:2E8E       Input
 0245:2F8E       Output
 0245:308E       SaveInt00
 0245:3092       SaveInt02
 0245:3096       SaveInt1B
 0245:309A       SaveInt21
 0245:309E       SaveInt23
 0245:30A2       SaveInt24
 0245:30A6       SaveInt34
 0245:30AA       SaveInt35
 0245:30AE       SaveInt36
 0245:30B2       SaveInt37
 0245:30B6       SaveInt38
 0245:30BA       SaveInt39
 0245:30BE       SaveInt3A
 0245:30C2       SaveInt3B
 0245:30C6       SaveInt3C
 0245:30CA       SaveInt3D
 0245:30CE       SaveInt3E
 0245:30D2       SaveInt3F
 0245:30D6       SaveInt75

Line numbers for ConfigureFrinj(CODE\CONFIG.PAS) segment ConfigureFrinj

    72 0000:0000    73 0000:0004    74 0000:0067    77 0000:0147
    78 0000:014A    79 0000:014D    80 0000:0167    81 0000:0181
    82 0000:019B    83 0000:01B5    84 0000:01CF    85 0000:01E8
    86 0000:0201    87 0000:021A    88 0000:0233    89 0000:024C
    91 0000:025E    94 0000:0305    95 0000:0308    96 0000:0311
    97 0000:0321    98 0000:032E    99 0000:0341   100 0000:034A
   101 0000:035A   102 0000:036A   103 0000:0377   104 0000:0380
   105 0000:038D   106 0000:0396   109 0000:03A9   110 0000:03B9
   111 0000:03C9   112 0000:03D9   113 0000:03E9   114 0000:03F9
   115 0000:0409   118 0000:0512   120 0000:0516   121 0000:0519
   122 0000:0532   123 0000:054A   124 0000:0562   125 0000:057A
   126 0000:0592   127 0000:05AA   130 0000:05C0   133 0000:05D3
   134 0000:05FE   137 0000:0611   138 0000:0624   140 0000:063A
   141 0000:064D   142 0000:0654   144 0000:0668   147 0000:068C
   148 0000:069A   149 0000:06AF   150 0000:06B4   151 0000:06C7
   152 0000:06CE   153 0000:06DF   155 0000:06F1   156 0000:06FF
   157 0000:0714   158 0000:0719   159 0000:072C   160 0000:0733
   161 0000:0744   163 0000:0756   164 0000:0764   165 0000:0779
   166 0000:077E   167 0000:0791   169 0000:07A3   170 0000:07CE
   171 0000:07E1   173 0000:07F3   179 0000:07F5   180 0000:0819
   182 0000:081F   183 0000:0824   185 0000:0827   186 0000:082C
   190 0000:0841   192 0000:0853   193 0000:0859   195 0000:085B
   196 0000:0863   198 0000:0869   199 0000:0872   201 0000:0875
   202 0000:087E   204 0000:0896   205 0000:089F   207 0000:08A1
   209 0000:08A7   210 0000:08B6   212 0000:08C6   213 0000:08D6
   214 0000:08D8   215 0000:08DE   217 0000:08E7   218 0000:08F7
   221 0000:08FE   222 0000:0901   223 0000:0904   224 0000:090B
   225 0000:0918   226 0000:0925   227 0000:0932   228 0000:093F
   229 0000:094C   231 0000:095A   232 0000:0975   233 0000:0979
   234 0000:098B   235 0000:0999   236 0000:09A5   237 0000:09B1
   238 0000:09B4   239 0000:09D8   240 0000:09DC   241 0000:09F9
   242 0000:09FD   243 0000:0A1A   244 0000:0A21   245 0000:0A2E
   246 0000:0A3B   247 0000:0A48   249 0000:0A55   251 0000:0A6D
   254 0000:0A6F   255 0000:0A72   256 0000:0A75   257 0000:0A7C
   258 0000:0A88   259 0000:0A95   260 0000:0AA2   261 0000:0AAF
   262 0000:0ABC   264 0000:0ACA   265 0000:0AE5   266 0000:0AE9
   267 0000:0AFC   268 0000:0B0A   269 0000:0B16   270 0000:0B22
   271 0000:0B25   272 0000:0B49   273 0000:0B4D   274 0000:0B6A
   275 0000:0B6E   276 0000:0B8B   277 0000:0B92   278 0000:0B9F
   279 0000:0BAC   280 0000:0BB9   282 0000:0BC6   284 0000:0BDE
   287 0000:0BE0   288 0000:0BE3   289 0000:0BE8   291 0000:0BED
   292 0000:0BF0   293 0000:0BF8   294 0000:0BFB   295 0000:0BFF
   296 0000:0C07   297 0000:0C0A   298 0000:0C22   299 0000:0C3A
   300 0000:0C47   302 0000:0C52   303 0000:0C54   304 0000:0C5D
   305 0000:0C66   307 0000:0C6F   308 0000:0C79   311 0000:0C7B
   313 0000:0C96   314 0000:0CAD   315 0000:0CB5   320 0000:0CC3
   321 0000:0CC7   322 0000:0CCB   323 0000:0CDB   324 0000:0CE4
   325 0000:0CE8   327 0000:0CEA   328 0000:0CF7   329 0000:0D00
   330 0000:0D04   332 0000:0D06   333 0000:0D19   334 0000:0D22
   336 0000:0D26   337 0000:0D31   342 0000:0D95   343 0000:0D99
   344 0000:0DA8   345 0000:0DB9   346 0000:0DC5   347 0000:0DD6
   348 0000:0DE8   349 0000:0DF9   350 0000:0E03   351 0000:0E14
   353 0000:0E2F   354 0000:0E3C   356 0000:0E43   357 0000:0E49
   358 0000:0E4E   359 0000:0E54   360 0000:0E5A   361 0000:0E60
   362 0000:0E66   363 0000:0E6B   365 0000:0E71   366 0000:0E74
   367 0000:0E77   368 0000:0E84   369 0000:0E89   370 0000:0E8C
   371 0000:0EA2

Program entry point at 0000:0E2F
