
 Start  Stop   Length Name               Class

 00000H 035CCH 035CDH crewgen            CODE
 035D0H 055BFH 01FF0H data               CODE
 055C0H 05722H 00163H utils              CODE
 05730H 0573FH 00010H journey            CODE
 05740H 05744H 00005H usecode            CODE
 05750H 05754H 00005H crew2              CODE
 05760H 05764H 00005H info               CODE
 05770H 05774H 00005H crewinfo           CODE
 05780H 05796H 00017H explore            CODE
 057A0H 057A4H 00005H utils2             CODE
 057B0H 05952H 001A3H display            CODE
 05960H 06C4CH 012EDH saveload           CODE
 06C50H 06C70H 00021H version            CODE
 06C80H 06C84H 00005H weird              CODE
 06C90H 06C94H 00005H ending             CODE
 06CA0H 06CA4H 00005H comm2              CODE
 06CB0H 06CB4H 00005H comm               CODE
 06CC0H 06CE0H 00021H combat             CODE
 06CF0H 06D03H 00014H crewtick           CODE
 06D10H 06D56H 00047H cargtool           CODE
 06D60H 06D60H 00000H heapchk            CODE
 06D60H 074D1H 00772H modplay            CODE
 074E0H 074E0H 00000H Strings            CODE
 074E0H 0753FH 00060H GetCPU             CODE
 07540H 07540H 00000H SDI__DAC           CODE
 07540H 07540H 00000H LoadM              CODE
 07540H 07540H 00000H MTMLoad            CODE
 07540H 07540H 00000H _669Load           CODE
 07540H 07540H 00000H AMFload            CODE
 07540H 08DFDH 018BEH MODLoad            CODE
 08E00H 08E00H 00000H STMLoad            CODE
 08E00H 08E00H 00000H S3MLoad            CODE
 08E00H 09043H 00244H Loaders            CODE
 09050H 0941AH 003CBH DSMI               CODE
 09420H 094CFH 000B0H vds                CODE
 094D0H 09747H 00278H mixer              CODE
 09750H 0B34FH 01C00H gus                CODE
 0B350H 0B5F4H 002A5H TimeServ           CODE
 0B600H 0B9BCH 003BDH detgus             CODE
 0B9C0H 0BBECH 0022DH Det_Aria           CODE
 0BBF0H 0BEC6H 002D7H Det_Pas            CODE
 0BED0H 0C5BCH 006EDH det_SB             CODE
 0C5C0H 0CC50H 00691H sdi__ari           CODE
 0CC60H 0D200H 005A1H SDI__PAS           CODE
 0D210H 0D7CEH 005BFH SDI__SB1           CODE
 0D7D0H 0DDFDH 0062EH SDI__SB            CODE
 0DE00H 0F663H 01864H AMP                CODE
 0F670H 12D93H 03724H MCP                CODE
 12DA0H 12DD6H 00037H mcpems             CODE
 12DE0H 1365EH 0087FH emhm               CODE
 13660H 13D6CH 0070DH Csupport           CODE
 13D70H 14131H 003C2H cdi                CODE
 14140H 149FFH 008C0H gmouse             CODE
 14A00H 180EFH 036F0H Graph              CODE
 180F0H 18782H 00693H Crt                CODE
 18790H 188FAH 0016BH Dos                CODE
 18900H 1CA70H 04171H System             CODE
 1CA80H 2887BH 0BDFCH DATA               DATA
 28880H 29A13H 01194H STACK              STACK
 29A20H 29A20H 00000H HEAP               HEAP

  Address         Publics by Value

 0000:008E       easteregg1
 0000:064E       showportrait
 0000:07AE       drawstats
 0000:0A07       lowerball
 0000:0ABA       raiseball
 0000:0B4E       getxp
 0000:0CA7       savedata
 0000:12C7       drawcrew
 0000:14B8       calculateship
 0000:1771       drawship
 0000:1A23       addship
 0000:1AE1       subship
 0000:1BA8       addcursor
 0000:1D08       subcursor
 0000:1EC6       showtitle
 0000:1FBE       addlevel
 0000:203E       sublevel
 0000:21DC       toggleswitch
 0000:2218       findmouse
 0000:22CA       processkey
 0000:233B       mainloop
 0000:2417       setstate
 0000:28D0       initcrew
 0000:2F79       readydata
 0000:32AC       checkparams
 0000:34D2       @
 035D:0000       fastkeypressed
 035D:0556       loadscreen
 035D:073B       compressfile
 035D:09C2       loadpal
 035D:0A48       set256colors
 035D:0A74       printxy
 035D:0D6B       errorhandler
 035D:105C       fading
 035D:1164       fadein
 035D:1265       @
 035D:1F7B       mymove
 035D:1F93       move
 035D:1FBE       fillchar
 055C:0000       plainfadearea
 055C:0079       graybutton
 055C:014F       @
 0573:0000       @
 0574:0000       @
 0575:0000       @
 0576:0000       @
 0577:0000       @
 0578:0000       @
 057A:0000       @
 057B:0163       displayship2
 057B:019E       @
 0596:0000       button
 0596:111F       savegamedata
 0596:12E3       @
 06C5:000B       @
 06C8:0000       @
 06C9:0000       @
 06CA:0000       @
 06CB:0000       @
 06CC:0000       @
 06CF:0000       ResetCrew
 06CF:000B       @
 06D1:0000       @
 06D6:009C       initializemod
 06D6:041A       stopmod
 06D6:04C1       playmod
 06D6:075B       @
 074E:0000       GetCPUtype
 0754:1483       LoadMOD
 0754:1546       ampLoadMOD
 08E0:0000       ampFreeModule
 0905:0000       initDSMI
 0905:03C6       @
 0942:0000       vdsInit
 0942:001E       vdsEnableDMATranslation
 0942:0041       vdsDisableDMATranslation
 0942:0064       vdsLockDMA
 0942:008A       vdsUnlockDMA
 094D:0030       mixerinit
 094D:0061       mixerset
 094D:0093       mixerget
 0975:0077       gushmInit
 0975:019D       gushmFreeAll
 0975:021B       gushmAlloc
 0975:04EC       gushmFree
 0975:0816       gusStartVoice
 0975:08B8       gusStopVoice
 0975:0958       gusInit
 0975:0ACB       gusClose
 0975:0AD0       gusSetSample
 0975:0B1E       gusPlaySample
 0975:0B50       gusSetVolume
 0975:0B7A       gusSetRate
 0975:0BA4       gusSetPosition
 0975:0BCE       gusSetPanning
 0975:0C04       gusSetMasterVolume
 0975:0C33       gusPauseChannel
 0975:0CBE       gusResumeChannel
 0975:0D50       gusPauseAll
 0975:0D65       gusResumeAll
 0975:0D7A       gusPoll
 0975:0D9B       gusGetDelta
 0975:122E       gusStopChannel
 0975:1504       gusPoke
 0975:154A       gusPeek
 0975:1981       gusDownload
 0975:19BA       gusUnload
 0975:19DB       gusUnloadAll
 0975:1A00       gusGetSamplingRate
 0975:1A16       gusGetVolume
 0975:1A2D       gusGetRate
 0975:1A47       gusGetPosition
 0975:1AC1       gusGetPanning
 0975:1B18       gusGetSample
 0975:1B33       gusSetupChannels
 0B35:0092       tsInit
 0B35:00ED       tsClose
 0B35:0111       tsChangeRoutine
 0B35:0173       tsAddRoutine
 0B35:01FB       tsRemoveRoutine
 0B35:0252       tsSetTimerRate
 0B35:029E       tsGetTimerRate
 0B60:0100       detectGUS
 0B9C:0071       detectARIA
 0BBF:01AC       detectPAS
 0BED:04AF       detectSB
 0BED:057F       detectSBpro
 0BED:062F       detectSB16
 0C5C:0139       sdi_aria
 0CC6:01A6       SDI_PAS
 0D21:0139       SDI_SB16
 0D7D:00EF       SDI_SB
 0D7D:010C       SDI_SBPro
 0DE0:112E       ampPlayRow
 0DE0:11BA       ampPoll
 0DE0:126A       ampInterrupt
 0DE0:1297       ampInit
 0DE0:12E6       ampClose
 0DE0:12FF       ampPlayMultiplePatterns
 0DE0:14A6       ampPlayModule
 0DE0:14DF       ampPlayPattern
 0DE0:151B       ampStopModule
 0DE0:155F       ampPauseModule
 0DE0:1597       ampResumeModule
 0DE0:15CF       ampGetModuleStatus
 0DE0:15E2       ampGetTrackStatus
 0DE0:160F       ampPauseTrack
 0DE0:165F       ampResumeTrack
 0DE0:16B2       ampGetPattern
 0DE0:16C4       ampGetRow
 0DE0:16D4       ampGetSync
 0DE0:16EB       ampGetTempo
 0DE0:16FF       ampSetTempo
 0DE0:173C       ampGetTrackData
 0DE0:17BC       ampBreakPattern
 0DE0:1802       ampGetBufferDelta
 0DE0:1826       ampSetPanning
 0F67:0026       nullfunction
 0F67:2AC8       mcpPoll
 0F67:2B79       mcpClearBuffer
 0F67:2BB6       mcpGetDelta
 0F67:2BEC       mcpInitSoundDevice
 0F67:2C57       mcpInit
 0F67:2DE3       mcpClose
 0F67:2E01       mcpOpenSpeaker
 0F67:2E06       mcpCloseSpeaker
 0F67:2F5D       mcpSetupChannels
 0F67:3008       mcpStartVoice
 0F67:3038       mcpStopVoice
 0F67:305A       mcpPauseVoice
 0F67:306E       mcpResumeVoice
 0F67:3082       mcpPauseChannel
 0F67:30B9       mcpResumeChannel
 0F67:30F0       mcpStopChannel
 0F67:3127       mcpPauseAll
 0F67:314E       mcpResumeAll
 0F67:3175       mcpGetChannelCount
 0F67:3186       mcpGetChannelStatus
 0F67:31B0       mcpSetSample
 0F67:324D       mcpPlaySample
 0F67:32EF       mcpSetVolume
 0F67:3328       mcpSetRate
 0F67:3393       mcpSetPosition
 0F67:33EA       mcpSetSamplingRate
 0F67:3451       mcpGetSamplingRate
 0F67:3455       mcpSetMasterVolume
 0F67:3476       mcpGetVolume
 0F67:34A3       mcpGetPosition
 0F67:34D0       mcpGetSample
 0F67:3514       mcpGetRate
 0F67:3541       mcpGetOutput
 0F67:356C       mcpSetPanning
 0F67:35A2       mcpGetPanning
 0F67:35D3       mcpCalibrateInit
 0F67:3635       mcpCalibrateClose
 0F67:363C       mcpCalibrate
 0F67:36B4       mcpDownload
 0F67:36BD       mcpUnloadAll
 0F67:36BE       mcpConvertSample
 12DA:0000       mcpSampleRealaddress
 12DA:0023       mcpEnableVirtualSamples
 12DA:002D       mcpDisableVirtualSamples
 12DE:006C       emsInit
 12DE:0229       emsClose
 12DE:0282       emsAlloc
 12DE:04AA       emsFree
 12DE:0512       emsLock
 12DE:06D2       emsCopyTo
 12DE:077D       emsSaveState
 12DE:078F       emsRestoreState
 1366:0000       calloc
 1366:003E       malloc
 1366:00BF       free
 1366:051B       farfree
 1366:05F6       strcpy
 1366:062B       strncpy
 1366:0668       memcmp
 1366:06CD       atexit
 1366:06ED       @
 13D7:0000       cdiInit
 13D7:0026       cdiRegister
 13D7:00B1       cdiClose
 13D7:00B2       cdiSetInstrument
 13D7:00D5       cdiPlayNote
 13D7:00FD       cdiStopNote
 13D7:011D       cdiSetVolume
 13D7:0141       cdiSetFrequency
 13D7:0165       cdiSetLinear
 13D7:017E       cdiSetPosition
 13D7:01A2       cdiSetPan
 13D7:01C6       cdiSetMasterVolume
 13D7:01E6       cdiPause
 13D7:0206       cdiResume
 13D7:0226       cdiPauseAll
 13D7:0242       cdiResumeAll
 13D7:025E       cdiPoll
 13D7:027E       cdiGetDelta
 13D7:029A       cdiDownloadSample
 13D7:02C2       cdiUnloadSamples
 13D7:02DE       cdiGetVolume
 13D7:02FE       cdiGetFrequency
 13D7:031E       cdiGetPosition
 13D7:033E       cdiGetPan
 13D7:035E       cdiGetInstrument
 13D7:037E       cdiSetupChannels
 1414:0339       @
 1414:05CB       mousehide
 1414:0668       mousesetcursor
 1414:068B       mouseshow
 14A0:00A3       GraphResult
 14A0:0372       RegisterBGIdriver
 14A0:0527       RegisterBGIfont
 14A0:065B       SetGraphBufSize
 14A0:0956       GraphDefaults
 14A0:0A16       InitGraph
 14A0:0CEE       RestoreCrtMode
 14A0:0D1B       CloseGraph
 14A0:0DD6       SetViewPort
 14A0:0E6B       MoveTo
 14A0:0E88       LineTo
 14A0:0EA3       SetLineStyle
 14A0:0EDD       SetFillStyle
 14A0:0F08       SetFillPattern
 14A0:0F64       SetBkColor
 14A0:0F99       SetAllPalette
 14A0:103E       GetDefaultPalette
 14A0:105D       SetTextJustify
 14A0:109F       SetTextStyle
 14A0:12DB       InstallUserDriver
 14A0:1400       @
 14A0:156C       SetVisualPage
 14A0:1586       SetActivePage
 14A0:15A3       SetWriteMode
 14A0:174B       Line
 14A0:1765       DrawPoly
 14A0:177C       FillPoly
 14A0:1793       Bar
 14A0:17AD       Bar3D
 14A0:17E5       Ellipse
 14A0:180C       FillEllipse
 14A0:1840       Sector
 14A0:1867       GetArcCoords
 14A0:1887       SetColor
 14A0:189F       GetMaxColor
 14A0:18AF       GetPaletteSize
 14A0:18E8       GetMaxMode
 14A0:190F       SetRGBPalette
 14A0:1974       FloodFill
 14A0:19DE       OutTextXY
 14A0:1A67       TextWidth
 14A0:1A98       GetPixel
 14A0:1AB0       PutPixel
 14A0:1AC7       GetImage
 180F:001B       Delay
 180F:00D2       @
 180F:0217       TextMode
 180F:022C       Window
 180F:026C       ClrScr
 180F:0286       ClrEol
 180F:029A       InsLine
 180F:029F       DelLine
 180F:02BF       GotoXY
 180F:02EB       WhereX
 180F:02F7       WhereY
 180F:0303       TextColor
 180F:031D       TextBackground
 180F:0335       LowVideo
 180F:033B       HighVideo
 180F:0341       NormVideo
 180F:0348       Sound
 180F:0375       NoSound
 180F:037C       KeyPressed
 180F:038E       ReadKey
 180F:03B0       AssignCrt
 1879:0000       DiskFree
 1879:0019       DiskSize
 1879:0034       FExpand
 1879:00FD       GetEnv
 1CA8:0002       shipnames
 1CA8:005C       probetext
 1CA8:00B6       scantypes
 1CA8:00FC       activity
 1CA8:012A       repairname
 1CA8:092A       teamdata
 1CA8:0A0A       crewtitles
 1CA8:0A5E       cubefaces
 1CA8:0AA6       alientypes
 1CA8:0B36       menunames
 1CA8:0DBE       font
 1CA8:10A0       modNotes
 1CA8:113A       order4
 1CA8:113E       order6
 1CA8:1144       order8
 1CA8:114C       CDI_GUS
 1CA8:11A8       CDI_GUSDPMIV86
 1CA8:2668       tsInited
 1CA8:3994       initStatus
 1CA8:3996       channelCount
 1CA8:3998       dataBuf
 1CA8:399A       CDI_MCP
 1CA8:3FA6       mallocMinLeft
 1CA8:45FE       OvrCodeList
 1CA8:4600       OvrHeapSize
 1CA8:4602       OvrDebugPtr
 1CA8:4606       OvrHeapOrg
 1CA8:4608       OvrHeapPtr
 1CA8:460A       OvrHeapEnd
 1CA8:460C       OvrLoadList
 1CA8:460E       OvrDosHandle
 1CA8:4610       OvrEmsHandle
 1CA8:4612       HeapOrg
 1CA8:4616       HeapPtr
 1CA8:461A       HeapEnd
 1CA8:461E       FreeList
 1CA8:4622       FreeZero
 1CA8:4626       HeapError
 1CA8:462A       ExitProc
 1CA8:462E       ExitCode
 1CA8:4630       ErrorAddr
 1CA8:4634       PrefixSeg
 1CA8:4636       StackLimit
 1CA8:4638       InOutRes
 1CA8:463A       RandSeed
 1CA8:463E       SelectorInc
 1CA8:4640       Seg0040
 1CA8:4642       SegA000
 1CA8:4644       SegB000
 1CA8:4646       SegB800
 1CA8:4648       Test8086
 1CA8:4649       Test8087
 1CA8:464A       FileMode
 1CA8:464E       i
 1CA8:4650       i2
 1CA8:4652       j
 1CA8:4654       a
 1CA8:4656       cursor
 1CA8:4658       code
 1CA8:465A       crewnum
 1CA8:465C       inputlevel
 1CA8:465E       anihandle
 1CA8:4660       quit
 1CA8:4661       crewmode
 1CA8:4662       toggle
 1CA8:4664       shipdata
 1CA8:466E       planets
 1CA8:4672       oldsys
 1CA8:4676       radii
 1CA8:467E       crewdata
 1CA8:4682       ani
 1CA8:4686       s
 1CA8:46A6       birdpic
 1CA8:46AA       colors
 1CA8:49AA       icons
 1CA8:49AE       systems
 1CA8:640C       weapons
 1CA8:676C       cargo
 1CA8:7596       bldcargo
 1CA8:76B8       prtcargo
 1CA8:7A1E       lvlcargo
 1CA8:80EA       rescargo
 1CA8:82DE       ship
 1CA8:8910       quit
 1CA8:8911       anychange
 1CA8:8912       panelon
 1CA8:8913       targetready
 1CA8:8914       showplanet
 1CA8:8915       reloading
 1CA8:8916       viewmode
 1CA8:8918       viewmode2
 1CA8:891A       viewlevel
 1CA8:891C       viewindex
 1CA8:891E       viewindex2
 1CA8:8920       alert
 1CA8:8922       curfilenum
 1CA8:8924       cube
 1CA8:8926       cx
 1CA8:8928       cy
 1CA8:892A       target
 1CA8:892C       sphere
 1CA8:892E       tc
 1CA8:8930       x
 1CA8:8932       y
 1CA8:8934       z
 1CA8:8936       c
 1CA8:8938       radius
 1CA8:893A       backgrx
 1CA8:893C       backgry
 1CA8:893E       r2
 1CA8:8940       offset
 1CA8:8942       water
 1CA8:8944       waterindex
 1CA8:8946       t
 1CA8:8948       curplan
 1CA8:894A       tcolor
 1CA8:894C       bkcolor
 1CA8:894E       tslice
 1CA8:8950       glowindex
 1CA8:8952       lightindex
 1CA8:8954       batindex
 1CA8:8956       action
 1CA8:8958       ecl
 1CA8:895A       textindex
 1CA8:895C       idletime
 1CA8:895E       cursorx
 1CA8:8960       command
 1CA8:8962       viewindex3
 1CA8:8964       viewindex4
 1CA8:8966       maxspherei
 1CA8:8968       spherei
 1CA8:896A       xw
 1CA8:896C       landform
 1CA8:8970       planet
 1CA8:8974       backgr
 1CA8:8978       starmapscreen
 1CA8:897C       c2
 1CA8:8982       t1
 1CA8:8988       t2
 1CA8:898E       ar
 1CA8:8994       br
 1CA8:899A       x1
 1CA8:89A0       y1
 1CA8:89A6       x2
 1CA8:89AC       y2
 1CA8:89B2       oldt1
 1CA8:89B8       statcolors
 1CA8:89BC       nearby
 1CA8:8B4C       nearbybackup
 1CA8:8CDC       tempplan
 1CA8:8CE0       done
 1CA8:8CE2       artifacts
 1CA8:8CE6       tempicon
 1CA8:8CEA       planicons
 1CA8:8CEE       tempdir
 1CA8:8D40       textdisplay
 1CA8:8D44       colordisplay
 1CA8:8D48       cubesrc
 1CA8:8D4C       cubetar
 1CA8:8D50       screen2
 1CA8:8D54       back1
 1CA8:8FF8       back2
 1CA8:929C       back3
 1CA8:9540       back4
 1CA8:97E4       spcindex
 1CA8:97EA       spcindex2
 1CA8:97F0       colorlookup
 1CA8:98F0       defaultsong
 1CA8:98FE       ppart
 1CA8:9BB0       pm
 1CA8:9C96       alien
 1CA8:9CB6       logpending
 1CA8:9EB6       events
 1CA8:A2B6       logs
 1CA8:A4B6       fadelevel
 1CA8:A4B8       palettedirty
 1CA8:A710       versionstring
 1CA8:AA0A       cf
 1CA8:AA1A       playing
 1CA8:AA1B       moderror
 1CA8:AA1C       module
 1CA8:AA20       sc
 1CA8:AB6C       LoadOptions
 1CA8:AB74       sampleList
 1CA8:AF74       sampleListLength
 1CA8:AF78       gusDeltaTime
 1CA8:B032       ModuleError
 1CA8:B034       _curModule
 1CA8:B090       trackdata
 1CA8:B09A       moduleinfo
 1CA8:B0DC       tracks
 1CA8:B5FC       samples
 1CA8:B7FC       SOUNDCARD
 1CA8:B832       bufferSize
 1CA8:B834       mcpStatus
 1CA8:B898       cdiStatus
 1CA8:B89A       mouse
 1CA8:B8A0       oldmouseexitproc
 1CA8:B8A4       mdefault
 1CA8:B9A4       GraphGetMemPtr
 1CA8:B9A8       GraphFreeMemPtr
 1CA8:BB88       CheckBreak
 1CA8:BB89       CheckEOF
 1CA8:BB8A       DirectVideo
 1CA8:BB8B       CheckSnow
 1CA8:BB8C       LastMode
 1CA8:BB8E       TextAttr
 1CA8:BB90       WindMin
 1CA8:BB92       WindMax
 1CA8:BB9A       Input
 1CA8:BC9A       Output
 1CA8:BD9A       SaveInt00
 1CA8:BD9E       SaveInt02
 1CA8:BDA2       SaveInt1B
 1CA8:BDA6       SaveInt21
 1CA8:BDAA       SaveInt23
 1CA8:BDAE       SaveInt24
 1CA8:BDB2       SaveInt34
 1CA8:BDB6       SaveInt35
 1CA8:BDBA       SaveInt36
 1CA8:BDBE       SaveInt37
 1CA8:BDC2       SaveInt38
 1CA8:BDC6       SaveInt39
 1CA8:BDCA       SaveInt3A
 1CA8:BDCE       SaveInt3B
 1CA8:BDD2       SaveInt3C
 1CA8:BDD6       SaveInt3D
 1CA8:BDDA       SaveInt3E
 1CA8:BDDE       SaveInt3F
 1CA8:BDE2       SaveInt75

Line numbers for data(DATA.PAS) segment data

   372 035D:0000   373 035D:0001   374 035D:0004   375 035D:0006
   376 035D:0007   377 035D:000A   378 035D:000E   379 035D:000F
   380 035D:0012   381 035D:0014   383 035D:0015   384 035D:0016
   396 035D:0017   397 035D:001A   398 035D:0026   399 035D:0047
   400 035D:0056   401 035D:0061   402 035D:0074   405 035D:0078
   406 035D:007B   407 035D:00AA   408 035D:00D0   410 035D:00E8
   411 035D:00EF   413 035D:00F1   414 035D:0117   415 035D:011E
   418 035D:0122   419 035D:0126   420 035D:012A   421 035D:0133
   423 035D:0147   424 035D:0151   425 035D:016D   426 035D:018E
   427 035D:01A9   428 035D:01E1   429 035D:01E3   430 035D:0215
   431 035D:0240   432 035D:024B   433 035D:024F   436 035D:0256
   437 035D:025A   438 035D:025E   439 035D:0268   440 035D:028A
   441 035D:02C9   442 035D:02CB   443 035D:02CF   446 035D:02D6
   447 035D:02DA   448 035D:02DE   449 035D:02E5   450 035D:02F4
   451 035D:030B   452 035D:0334   454 035D:033B   456 035D:0353
   457 035D:035B   458 035D:0368   459 035D:0384   460 035D:0389
   461 035D:0396   462 035D:03B2   463 035D:03EF   464 035D:040D
   466 035D:0418   467 035D:042B   468 035D:0433   469 035D:0438
   470 035D:043A   473 035D:043C   474 035D:0458   475 035D:046B
   476 035D:047A   478 035D:047F   479 035D:0487   480 035D:0494
   481 035D:04B5   482 035D:04B9   484 035D:04C0   485 035D:04DB
   486 035D:04EB   487 035D:04FC   488 035D:0509   490 035D:0522
   491 035D:0526   493 035D:0528   494 035D:0533   495 035D:054D
   500 035D:0556   501 035D:0571   502 035D:059B   503 035D:05AE
   515 035D:05B2   516 035D:05B5   517 035D:05D6   518 035D:05E5
   519 035D:05F0   520 035D:05FD   523 035D:0601   524 035D:0605
   526 035D:060E   527 035D:0613   528 035D:0618   529 035D:061D
   530 035D:0623   531 035D:0629   533 035D:062E   534 035D:0638
   535 035D:065A   536 035D:0681   537 035D:068B   538 035D:06A9
   539 035D:06D0   542 035D:06D4   543 035D:06D7   544 035D:06E4
   545 035D:0707   547 035D:071F   548 035D:0726   550 035D:0728
   551 035D:0732   553 035D:073B   554 035D:0756   555 035D:0766
   556 035D:078C   557 035D:0799   558 035D:07AE   559 035D:07B2
   560 035D:07BE   561 035D:07C4   562 035D:07CA   564 035D:07D0
   565 035D:07D6   566 035D:07E8   568 035D:0804   569 035D:0808
   570 035D:080C   571 035D:080E   572 035D:081D   574 035D:0838
   575 035D:0849   576 035D:084D   577 035D:0859   580 035D:0866
   582 035D:086E   583 035D:087C   584 035D:0880   585 035D:088C
   586 035D:089A   587 035D:089E   588 035D:08AA   589 035D:08BB
   590 035D:08BF   591 035D:08CB   592 035D:08D1   593 035D:08D3
   594 035D:08E2   596 035D:08FD   597 035D:090E   598 035D:0912
   599 035D:091E   602 035D:092A   603 035D:0938   604 035D:093C
   605 035D:0948   606 035D:0959   607 035D:095D   608 035D:0969
   609 035D:097A   610 035D:097E   613 035D:098A   614 035D:0995
   615 035D:0999   616 035D:09A4   617 035D:09BE   621 035D:09C2
   622 035D:09DD   623 035D:09EE   624 035D:09FC   625 035D:0A11
   626 035D:0A24   627 035D:0A39   628 035D:0A44   690 035D:0A48
   691 035D:0A4B   692 035D:0A4C   693 035D:0A4E   694 035D:0A51
   696 035D:0A54   697 035D:0A55   698 035D:0A58   700 035D:0A5A
   701 035D:0A5B   702 035D:0A5E   703 035D:0A60   704 035D:0A63
   705 035D:0A65   706 035D:0A66   707 035D:0A67   709 035D:0A6A
   710 035D:0A6B   711 035D:0A6C   712 035D:0A6D   713 035D:0A6F
   714 035D:0A70   718 035D:0A74   719 035D:0A8F   720 035D:0A96
   721 035D:0A9F   723 035D:0ABE   724 035D:0AC5   725 035D:0ACD
   726 035D:0AE8   727 035D:0B03   728 035D:0B1E   729 035D:0B39
   730 035D:0B45   732 035D:0B4B   733 035D:0B52   735 035D:0B5D
   736 035D:0B64   737 035D:0B68   739 035D:0B74   740 035D:0B78
   741 035D:0BCD   742 035D:0BED   743 035D:0BF7   744 035D:0BFC
   745 035D:0C03   746 035D:0C07   747 035D:0C0B   749 035D:0C17
   750 035D:0C1B   751 035D:0C70   752 035D:0C90   753 035D:0C9A
   754 035D:0C9F   755 035D:0CA9   756 035D:0CB2   757 035D:0CE9
   758 035D:0CF5   759 035D:0CFC   762 035D:0D6B   763 035D:0D86
   764 035D:0D8B   765 035D:0D95   766 035D:0D98   767 035D:0DC3
   768 035D:0DEE   769 035D:0E19   770 035D:0E43   771 035D:0E6D
   772 035D:0E97   774 035D:0EBF   775 035D:0EC7   780 035D:0ECB
   781 035D:0ECE   782 035D:0ED0   783 035D:0ED2   784 035D:0ED4
   785 035D:0ED7   787 035D:0ED9   789 035D:0EDC   794 035D:0F4D
   795 035D:0F51   796 035D:0F66   797 035D:0F6E   799 035D:0F74
   800 035D:0F97   802 035D:0F9F   803 035D:0FAC   804 035D:0FB4
   806 035D:0FBA   807 035D:0FDD   809 035D:0FE5   810 035D:0FEA
   811 035D:0FFE   812 035D:1006   814 035D:100C   815 035D:102F
   817 035D:1037   818 035D:103E   820 035D:1043   821 035D:1046
   823 035D:1048   824 035D:1051   825 035D:105A   832 035D:105C
   833 035D:1060   834 035D:1072   835 035D:1081   837 035D:108D
   838 035D:10A5   839 035D:10BE   840 035D:10C6   841 035D:10D2
   843 035D:10DC   845 035D:10E8   846 035D:10F8   847 035D:1108
   849 035D:1113   850 035D:111C   852 035D:1124   853 035D:112C
   854 035D:1136   855 035D:113E   856 035D:1144   857 035D:1153
   858 035D:115D   859 035D:1162   866 035D:1164   867 035D:1168
   868 035D:1174   869 035D:1183   870 035D:1192   872 035D:119E
   873 035D:11B6   874 035D:11CF   875 035D:11D7   877 035D:11E1
   879 035D:11ED   880 035D:11FD   881 035D:120D   883 035D:1218
   884 035D:1220   886 035D:1229   887 035D:1231   888 035D:123B
   889 035D:1243   890 035D:1249   891 035D:1252   892 035D:1258
   947 035D:1265   948 035D:1268   949 035D:126D   950 035D:1272
   951 035D:1275   952 035D:127B   953 035D:1280   954 035D:128F
   955 035D:12A0

Line numbers for utils(UTILS.PAS) segment utils

    98 055C:0000    99 055C:0004   100 055C:0009   101 055C:001F
   102 055C:0035   103 055C:0070   104 055C:0075   107 055C:0079
   108 055C:007D   109 055C:0087   110 055C:009E   111 055C:00C1
   112 055C:00DB   113 055C:00F5   114 055C:00FC   115 055C:010D
   116 055C:0114   117 055C:0125   118 055C:0138   119 055C:014B
  1108 055C:014F  1109 055C:0152  1110 055C:0161

Line numbers for journey(JOURNEY.PAS) segment journey

  1490 0573:0000  1491 0573:0003  1492 0573:0008  1493 0573:000E

Line numbers for usecode(USECODE.PAS) segment usecode

  1620 0574:0000  1621 0574:0003

Line numbers for crew2(CREW2.PAS) segment crew2

   609 0575:0000   610 0575:0003

Line numbers for info(INFO.PAS) segment info

   998 0576:0000   999 0576:0003

Line numbers for crewinfo(CREWINFO.PAS) segment crewinfo

   310 0577:0000   311 0577:0003

Line numbers for explore(EXPLORE.PAS) segment explore

  2072 0578:0000  2073 0578:0003  2074 0578:0009  2075 0578:000F
  2076 0578:0015

Line numbers for utils2(UTILS2.PAS) segment utils2

  1789 057A:0000  1790 057A:0003

Line numbers for display(DISPLAY.PAS) segment display

  2059 057B:0011  2060 057B:0015  2061 057B:0025  2062 057B:0034
  2063 057B:0041  2064 057B:0056  2065 057B:0066  2066 057B:007B
  2067 057B:008E  2068 057B:00A3  2069 057B:00AD  2070 057B:00B6
  2071 057B:00C4  2072 057B:00D5  2074 057B:00E4  2075 057B:0102
  2076 057B:010D  2077 057B:014F  2078 057B:015F  2082 057B:0163
  2083 057B:0167  2084 057B:0177  2085 057B:0188  2086 057B:019A
  3054 057B:019E  3055 057B:01A1

Line numbers for saveload(SAVELOAD.PAS) segment saveload

    50 0596:0000    51 0596:0003    52 0596:0011    53 0596:0022
    54 0596:002E    55 0596:003F    56 0596:0050    57 0596:005C
    58 0596:006D    59 0596:007E    60 0596:0098    61 0596:00B2
    65 0596:00BF    66 0596:00C3    67 0596:00D2    68 0596:00DB
    70 0596:00E7    71 0596:0107    72 0596:0127    73 0596:0148
    74 0596:017D    75 0596:0187    76 0596:01A1    80 0596:01B5
    81 0596:01B9    82 0596:01D3    83 0596:01E0    84 0596:0200
    85 0596:0213    86 0596:0233    87 0596:023D    90 0596:0254
    91 0596:0258    92 0596:0264    94 0596:0279    95 0596:028A
    96 0596:0293    97 0596:0299    98 0596:02A0   102 0596:02B4
   103 0596:02B8   104 0596:02D2   105 0596:02DF   107 0596:02E8
   108 0596:02EB   109 0596:02EE   110 0596:02FB   112 0596:031B
   113 0596:032E   114 0596:034E   115 0596:0358   122 0596:0393
   123 0596:0397   124 0596:03D2   125 0596:03DF   126 0596:03F2
   127 0596:0412   128 0596:041C   129 0596:0458   130 0596:0465
   131 0596:04A6   132 0596:04CB   133 0596:04D8   135 0596:04DD
   136 0596:04F1   137 0596:04FF   139 0596:0506   140 0596:051A
   142 0596:053A   143 0596:0541   144 0596:054C   145 0596:0557
   153 0596:05CD   154 0596:05D1   155 0596:060C   156 0596:0619
   157 0596:0639   158 0596:064B   159 0596:066B   161 0596:0675
   162 0596:06B1   163 0596:06BF   164 0596:06DF   165 0596:06F2
   166 0596:0712   168 0596:071D   169 0596:0759   170 0596:0767
   171 0596:0787   172 0596:079A   173 0596:07BA   175 0596:07C5
   176 0596:0801   177 0596:080F   178 0596:082F   179 0596:0842
   180 0596:0862   182 0596:086D   183 0596:08A9   184 0596:08B7
   185 0596:08D7   186 0596:08EA   187 0596:090A   189 0596:0915
   190 0596:091B   191 0596:091E   307 0596:0922   308 0596:0925
   309 0596:092E   310 0596:0933   311 0596:095A   312 0596:096D
   313 0596:0972   316 0596:0974   317 0596:0977   318 0596:0980
   319 0596:0985   320 0596:09AC   321 0596:09BF   322 0596:09C4
   326 0596:09C6   327 0596:09CA   328 0596:09CD   329 0596:09D5
   330 0596:09D8   331 0596:09DC   332 0596:09E4   333 0596:09E7
   334 0596:09FA   335 0596:0A07   336 0596:0A0F   338 0596:0A26
   339 0596:0A29   340 0596:0A36   341 0596:0A42   342 0596:0A4E
   343 0596:0A5A   344 0596:0A66   345 0596:0A72   346 0596:0A7E
   347 0596:0A8A   348 0596:0A9A   349 0596:0AAC   350 0596:0AB0
   351 0596:0AB6   354 0596:0ABB   355 0596:0ABE   356 0596:0AC4
   357 0596:0ACA   362 0596:0ACC   363 0596:0AD0   364 0596:0AE8
   365 0596:0B03   366 0596:0B06   367 0596:0B2E   368 0596:0B56
   369 0596:0B7E   370 0596:0BA6   371 0596:0BCE   372 0596:0BF5
   373 0596:0C1C   374 0596:0C43   375 0596:0C6B   377 0596:0C70
   379 0596:0C79   380 0596:0C7C   381 0596:0C82   383 0596:0C85
   384 0596:0C97   389 0596:0C99   390 0596:0C9D   391 0596:0CA2
   392 0596:0CA7   393 0596:0CAD   394 0596:0CB0   395 0596:0CB6
   396 0596:0CBC   397 0596:0CC7   398 0596:0CCC   399 0596:0CD1
   400 0596:0CD9   402 0596:0CE4   403 0596:0CE7   404 0596:0CF3
   406 0596:0CFC   407 0596:0CFF   409 0596:0D05   410 0596:0D0A
   411 0596:0D0D   412 0596:0D18   413 0596:0D1B   414 0596:0D27
   415 0596:0D33   416 0596:0D3F   417 0596:0D4B   418 0596:0D57
   419 0596:0D63   420 0596:0D6F   423 0596:0D79   424 0596:0D8D
   425 0596:0D9F   426 0596:0DAF   427 0596:0DB4   428 0596:0DC0
   429 0596:0DF0   431 0596:0DF5   432 0596:0DF6   433 0596:0DF7
   434 0596:0DFA   435 0596:0DFE   436 0596:0E00   437 0596:0E04
   438 0596:0E07   439 0596:0E09   440 0596:0E0B   441 0596:0E0C
   442 0596:0E0E   443 0596:0E10   444 0596:0E12   445 0596:0E14
   446 0596:0E15   448 0596:0E16   449 0596:0E22   450 0596:0E55
   452 0596:0E5A   453 0596:0E5B   454 0596:0E5C   455 0596:0E5F
   456 0596:0E61   457 0596:0E63   458 0596:0E66   459 0596:0E6A
   460 0596:0E6C   461 0596:0E6D   463 0596:0E6E   464 0596:0E73
   466 0596:0E7B   467 0596:0E85   468 0596:0E8B   522 0596:0E92
   523 0596:0E96   524 0596:0E9B   525 0596:0EB7   526 0596:0EC0
   527 0596:0EC4   528 0596:0EC9   530 0596:0ECD   531 0596:0ED6
   532 0596:0EF7   533 0596:0EFD   534 0596:0F3A   535 0596:0F45
   537 0596:0F51   538 0596:0F59   539 0596:0F62   541 0596:0F69
   542 0596:0F71   543 0596:0F74   544 0596:0F83   545 0596:0F92
   546 0596:0F96   547 0596:0FA7   548 0596:0FDA   551 0596:0FEA
   552 0596:0FED   554 0596:0FF1   555 0596:0FFA   556 0596:100B
   557 0596:103E   558 0596:104E   559 0596:1051   561 0596:1075
   562 0596:108D   563 0596:10C1   564 0596:10D8   565 0596:10E1
   566 0596:10E3   569 0596:10EB   570 0596:10FA   571 0596:110A
   572 0596:1110   577 0596:111F   578 0596:1123   579 0596:1132
   580 0596:1141   581 0596:1146   582 0596:1152   583 0596:1182
   584 0596:1188   585 0596:1199   586 0596:11CD   587 0596:11E3
   588 0596:11EC   589 0596:1205   590 0596:120B   592 0596:1214
   593 0596:1217   594 0596:121A   595 0596:1222   598 0596:122E
   600 0596:1235   601 0596:1238   603 0596:123A   604 0596:123F
   605 0596:1251   606 0596:1263   607 0596:1266   608 0596:126A
   610 0596:1270   611 0596:1275   612 0596:1281   613 0596:12B1
   614 0596:12C1   615 0596:12D1   616 0596:12D6   617 0596:12DC
  1246 0596:12E3  1247 0596:12E6  1248 0596:12EB

Line numbers for version(VERSION.PAS) segment version

     7 06C5:000B     8 06C5:000E    11 06C5:001F

Line numbers for weird(WEIRD.PAS) segment weird

  1274 06C8:0000  1275 06C8:0003

Line numbers for ending(ENDING.PAS) segment ending

   437 06C9:0000   438 06C9:0003

Line numbers for comm2(COMM2.PAS) segment comm2

  1047 06CA:0000  1048 06CA:0003

Line numbers for comm(COMM.PAS) segment comm

  1879 06CB:0000  1880 06CB:0003

Line numbers for combat(COMBAT.PAS) segment combat

  1486 06CC:0000  1487 06CC:0003  1488 06CC:001F

Line numbers for crewtick(CREWTICK.PAS) segment crewtick

   740 06CF:0000   741 06CF:0003   742 06CF:0009   744 06CF:000B
   745 06CF:000E   746 06CF:0012

Line numbers for cargtool(CARGTOOL.PAS) segment cargtool

  2107 06D1:0000  2108 06D1:0003  2109 06D1:001F  2110 06D1:0024
  2111 06D1:0040  2112 06D1:0045

Line numbers for modplay(MODPLAY.PAS) segment modplay

    55 06D6:000A    56 06D6:000E    57 06D6:0012    58 06D6:002D
    59 06D6:0036    60 06D6:003A    62 06D6:003C    63 06D6:0049
    64 06D6:0052    65 06D6:0056    67 06D6:0058    68 06D6:006B
    69 06D6:0074    71 06D6:0078    72 06D6:0083    80 06D6:009C
    81 06D6:00A0    82 06D6:00A5    83 06D6:00BA    84 06D6:00C8
    85 06D6:00CD    86 06D6:00D2    87 06D6:00D7    88 06D6:00DC
    89 06D6:00E0    90 06D6:00E6    91 06D6:00EC    93 06D6:00F6
    95 06D6:0100    96 06D6:0104    97 06D6:0107    98 06D6:0113
    99 06D6:011F   100 06D6:012B   101 06D6:0137   102 06D6:0143
   103 06D6:014F   105 06D6:015B   107 06D6:0167   112 06D6:0173
   113 06D6:0179   114 06D6:017F   115 06D6:0185   116 06D6:018B
   119 06D6:0198   120 06D6:01A2   122 06D6:01BB   123 06D6:01D5
   125 06D6:01E8   126 06D6:0208   127 06D6:021A   128 06D6:024A
   130 06D6:024E   132 06D6:0261   133 06D6:0281   134 06D6:0293
   135 06D6:02C3   137 06D6:02C7   139 06D6:02DA   140 06D6:02FA
   141 06D6:030C   142 06D6:033C   144 06D6:0340   146 06D6:0353
   147 06D6:0373   148 06D6:0385   149 06D6:03B5   151 06D6:03B9
   152 06D6:03C2   154 06D6:03C8   155 06D6:03CE   156 06D6:03D4
   157 06D6:03DA   159 06D6:03E0   161 06D6:0411   162 06D6:0416
   164 06D6:0418   168 06D6:041A   169 06D6:041E   170 06D6:042E
   171 06D6:0435   173 06D6:0446   174 06D6:0451   175 06D6:0458
   177 06D6:0460   179 06D6:0471   180 06D6:047C   181 06D6:0483
   182 06D6:0489   183 06D6:048E   184 06D6:049A   185 06D6:049F
   186 06D6:04A9   203 06D6:04C1   204 06D6:04DC   205 06D6:04ED
   206 06D6:04FE   207 06D6:050C   209 06D6:0515   211 06D6:0520
   212 06D6:0529   213 06D6:0532   215 06D6:0535   217 06D6:0540
   218 06D6:054B   219 06D6:0561   221 06D6:056A   222 06D6:056F
   224 06D6:0572   225 06D6:0585   226 06D6:05A9   228 06D6:05B3
   229 06D6:05D2   230 06D6:060D   231 06D6:0624   232 06D6:063B
   233 06D6:0653   234 06D6:066C   237 06D6:066E   238 06D6:068B
   239 06D6:06C6   241 06D6:06DD   242 06D6:06F4   243 06D6:0702
   244 06D6:071F   245 06D6:0734   246 06D6:0752   247 06D6:0757
   334 06D6:075B   335 06D6:075E   336 06D6:0766   337 06D6:076B
   338 06D6:0770

Line numbers for MODLoad(MODLOAD.PAS) segment MODLoad

    55 0754:0000    56 0754:0003    57 0754:0006    58 0754:0008
    66 0754:000C    67 0754:0010    68 0754:001C    69 0754:003A
    70 0754:004E    71 0754:0060    72 0754:007D    73 0754:008B
    74 0754:0090    75 0754:0095    76 0754:00AF    77 0754:00C5
    78 0754:00D7    79 0754:00EE    80 0754:00F5    81 0754:00F9
    82 0754:010C    83 0754:0121    84 0754:0129    85 0754:0136
    86 0754:015D    87 0754:0167    88 0754:0179    89 0754:018E
    90 0754:01A3    91 0754:01AE    92 0754:01CE    93 0754:01DE
    94 0754:0207    95 0754:021D    96 0754:0246    97 0754:0260
    98 0754:0263   100 0754:0266   101 0754:0278   111 0754:027F
   112 0754:0283   113 0754:0289   114 0754:028F   115 0754:029E
   116 0754:02BA   117 0754:02D0   118 0754:02E6   119 0754:02FD
   120 0754:032E   121 0754:0332   122 0754:033D   123 0754:0351
   124 0754:0368   125 0754:036D   126 0754:037D   127 0754:038F
   128 0754:0399   129 0754:03B7   130 0754:03C8   131 0754:03E3
   132 0754:03EC   133 0754:040C   134 0754:044C   135 0754:0459
   136 0754:045E   147 0754:0465   148 0754:0468   149 0754:0480
   150 0754:0498   151 0754:04B1   152 0754:04B8   155 0754:04BC
   156 0754:04BF   157 0754:04D7   158 0754:04EF   159 0754:0508
   160 0754:050F   162 0754:0513   163 0754:0517   164 0754:051C
   165 0754:0521   166 0754:0525   167 0754:0529   168 0754:052D
   169 0754:053A   170 0754:054A   171 0754:0559   172 0754:0563
   173 0754:0569   174 0754:056D   175 0754:0571   176 0754:059E
   177 0754:05AE   179 0754:05BC   180 0754:05C5   181 0754:05CA
   182 0754:05D0   183 0754:05E5   184 0754:05F9   185 0754:05FD
   186 0754:0603   187 0754:0609   189 0754:0613   190 0754:0641
   192 0754:0647   193 0754:064A   195 0754:0652   196 0754:065F
   197 0754:0674   198 0754:0676   200 0754:0682   201 0754:06A1
   203 0754:06AA   204 0754:06B0   206 0754:06B3   208 0754:06D5
   209 0754:06E4   211 0754:06E8   213 0754:06EE   214 0754:06FB
   216 0754:06FF   218 0754:0705   219 0754:0708   220 0754:0714
   221 0754:072C   222 0754:073C   223 0754:073E   224 0754:0751
   225 0754:0754   226 0754:0773   227 0754:0783   228 0754:0797
   229 0754:07A7   230 0754:07AB   231 0754:07C8   232 0754:07D5
   233 0754:07D8   235 0754:07E2   236 0754:07EC   237 0754:07F9
   238 0754:07FC   240 0754:0806   241 0754:0810   242 0754:081F
   243 0754:0822   244 0754:0836   245 0754:083A   246 0754:0857
   247 0754:0864   248 0754:0867   249 0754:086B   250 0754:0888
   251 0754:0895   252 0754:0898   253 0754:08AC   254 0754:08C6
   255 0754:08DD   256 0754:08F1   257 0754:08F8   258 0754:0903
   259 0754:090B   260 0754:090E   261 0754:0923   262 0754:0939
   263 0754:094D   264 0754:0961   265 0754:0977   266 0754:098B
   267 0754:099F   271 0754:09B1   272 0754:09BA   273 0754:09CB
   274 0754:09CE   275 0754:09DB   276 0754:09E5   277 0754:0A01
   278 0754:0A1C   280 0754:0A7A   281 0754:0A96   282 0754:0A99
   283 0754:0AA5   284 0754:0ABD   286 0754:0AC5   287 0754:0ADD
   288 0754:0AE6   289 0754:0AEE   292 0754:0B15   293 0754:0B21
   300 0754:0B2B   301 0754:0B2F   302 0754:0B3E   303 0754:0B5A
   304 0754:0B7B   305 0754:0B93   306 0754:0BB0   307 0754:0BED
   308 0754:0C00   309 0754:0C06   310 0754:0C0F   311 0754:0C2C
   312 0754:0C43   313 0754:0C64   314 0754:0C8C   315 0754:0CB7
   316 0754:0CBA   317 0754:0CD5   318 0754:0CE4   319 0754:0D00
   320 0754:0D0B   321 0754:0D23   322 0754:0D56   323 0754:0D5A
   324 0754:0D65   325 0754:0D6A   327 0754:0D6D   328 0754:0D8F
   329 0754:0DA6   330 0754:0DB2   331 0754:0DE8   332 0754:0E1E
   333 0754:0E54   334 0754:0E8A   335 0754:0E8C   336 0754:0E91
   338 0754:0E94   339 0754:0EAB   340 0754:0EB7   341 0754:0EED
   342 0754:0F23   343 0754:0F59   344 0754:0F8F   345 0754:0F91
   346 0754:0F96   349 0754:0F98   350 0754:0FA4   351 0754:0FA9
   364 0754:0FB0   365 0754:0FB4   366 0754:100F   368 0754:1031
   369 0754:104B   371 0754:105E   372 0754:107C   374 0754:1089
   376 0754:10A2   377 0754:10BB   379 0754:10D5   380 0754:10E3
   381 0754:10FE   382 0754:1103   383 0754:111A   384 0754:112A
   385 0754:1143   387 0754:115F   388 0754:1164   389 0754:1182
   390 0754:118E   391 0754:11B7   394 0754:11B9   395 0754:11BE
   396 0754:11DC   398 0754:11E8   399 0754:11FE   400 0754:121A
   402 0754:1272   422 0754:1275   423 0754:1288   425 0754:128E
   426 0754:1293   428 0754:1296   429 0754:12A4   431 0754:12AC
   432 0754:12B4   433 0754:12B9   435 0754:12BC   436 0754:12C4
   437 0754:12D5   439 0754:12E9   440 0754:1305   441 0754:131B
   443 0754:1324   444 0754:132C   445 0754:1337   446 0754:133C
   448 0754:133F   449 0754:1351   450 0754:136C   451 0754:1377
   452 0754:1382   453 0754:1385   454 0754:1390   457 0754:13A1
   458 0754:13A3   459 0754:13B0   461 0754:13BD   462 0754:13C8
   463 0754:13CD   468 0754:13D4   469 0754:13D8   470 0754:13FA
   471 0754:1415   472 0754:1434   473 0754:1474   474 0754:147F
   478 0754:1483   479 0754:1487   480 0754:1492   481 0754:149D
   482 0754:14AD   483 0754:14B3   484 0754:14BC   485 0754:14D1
   486 0754:14D7   487 0754:14DF   488 0754:14EF   489 0754:14F5
   490 0754:14FD   491 0754:150D   492 0754:1513   493 0754:1521
   494 0754:1529   495 0754:153F   502 0754:1546   503 0754:1561
   504 0754:1567   505 0754:1576   507 0754:1580   508 0754:1586
   509 0754:158E   511 0754:1591   512 0754:15A0   513 0754:15B1
   514 0754:15BE   516 0754:15C7   517 0754:15CD   518 0754:15D5
   520 0754:15D8   521 0754:15E0   522 0754:15F0   523 0754:1607
   525 0754:1627   526 0754:162F   527 0754:163E   528 0754:1659
   529 0754:1662   530 0754:166B   531 0754:1681   532 0754:1684
   534 0754:1694   535 0754:169C   536 0754:16AB   537 0754:16C6
   538 0754:16CF   539 0754:16D8   540 0754:16EE   541 0754:16F1
   543 0754:1701   544 0754:1709   545 0754:1718   546 0754:1733
   547 0754:173C   548 0754:1745   549 0754:175B   550 0754:175E
   552 0754:176E   553 0754:1776   554 0754:1785   555 0754:17A0
   556 0754:17A9   557 0754:17B2   558 0754:17C8   561 0754:17CA
   562 0754:17D2   563 0754:17E1   564 0754:17FC   565 0754:1805
   566 0754:180E   568 0754:1824   570 0754:182E   571 0754:1834
   572 0754:183C   574 0754:183E   575 0754:1852   576 0754:1859
   578 0754:1879   579 0754:1884   580 0754:1891   582 0754:189B
   583 0754:18A6   584 0754:18B4

Line numbers for Loaders(LOADERS.PAS) segment Loaders

    33 08E0:0000    34 08E0:0004    35 08E0:0013    36 08E0:0022
    37 08E0:0045    38 08E0:0058    39 08E0:0068    41 08E0:008A
    43 08E0:00A8    45 08E0:00BD    47 08E0:00C5    48 08E0:00CB
    49 08E0:00E1    50 08E0:011A    52 08E0:012D    53 08E0:0138
    55 08E0:014B    56 08E0:015E    57 08E0:017E    58 08E0:019D
    59 08E0:01A3    60 08E0:01BA    61 08E0:01DD    62 08E0:01E5
    63 08E0:01EC    64 08E0:01F4    65 08E0:0207    66 08E0:0212
    69 08E0:0225    70 08E0:0234    71 08E0:0240

Line numbers for DSMI(DSMI.PAS) segment DSMI

    45 0905:0000    46 0905:0004    47 0905:0009    49 0905:0012
    50 0905:0020    51 0905:002E    52 0905:0042    53 0905:0056
    54 0905:006A    55 0905:007E    57 0905:0092    59 0905:009B
    60 0905:00A1    61 0905:00B4    62 0905:00C7    63 0905:00CB
    64 0905:00D7    65 0905:00F8    66 0905:00FA    67 0905:00FE
    68 0905:010A    69 0905:012B    70 0905:012D    72 0905:0139
    73 0905:0145    74 0905:0166    75 0905:0168    78 0905:016E
    79 0905:0173    82 0905:0176    84 0905:017F    86 0905:0194
    87 0905:0199    90 0905:019C    93 0905:019E    94 0905:01A3
    96 0905:01A6    98 0905:01AF    99 0905:01BD   101 0905:01C6
   104 0905:01D2   106 0905:01E3   107 0905:01E8   108 0905:0207
   110 0905:0220   111 0905:0229   117 0905:022E   119 0905:023C
   121 0905:0244   122 0905:0249   129 0905:024C   130 0905:0261
   132 0905:0270   133 0905:027C   134 0905:0282   135 0905:028A
   137 0905:0298   138 0905:02A4   139 0905:02B3   140 0905:02B8
   141 0905:02BA   142 0905:02CF   144 0905:02E6   145 0905:02F9
   146 0905:02FF   148 0905:0305   150 0905:0313   151 0905:0318
   153 0905:031B   154 0905:0328   155 0905:032D   156 0905:033F
   158 0905:0341   159 0905:034C   160 0905:0359   161 0905:035E
   162 0905:0363   164 0905:0375   165 0905:037A   166 0905:0387
   168 0905:0394   169 0905:0399   171 0905:039B   172 0905:03A8
   173 0905:03BA   174 0905:03BF   176 0905:03C6   177 0905:03C9

Line numbers for gus(GUS.PAS) segment gus

   188 0975:0000   189 0975:0004   190 0975:0011   191 0975:0023
   192 0975:0030   193 0975:0052   194 0975:0063   195 0975:0065
   196 0975:006D   200 0975:0077   201 0975:007B   202 0975:0089
   203 0975:0097   204 0975:00A6   205 0975:00B6   206 0975:00C4
   207 0975:00D7   208 0975:00E5   209 0975:00F8   210 0975:0106
   211 0975:0119   212 0975:0126   213 0975:012B   214 0975:0138
   215 0975:013D   216 0975:014A   218 0975:015C   219 0975:0176
   220 0975:018D   221 0975:0193   222 0975:0198   239 0975:019D
   240 0975:01A1   241 0975:01B3   242 0975:01BC   243 0975:01C9
   244 0975:01DA   245 0975:01E5   246 0975:01F1   247 0975:01F3
   248 0975:0206   249 0975:0219   255 0975:021B   256 0975:021F
   257 0975:0233   258 0975:0240   259 0975:024D   260 0975:0257
   261 0975:025C   262 0975:0275   263 0975:0285   264 0975:02B8
   266 0975:030D   267 0975:034D   268 0975:0371   269 0975:037D
   270 0975:0389   272 0975:038E   273 0975:0390   274 0975:03B4
   275 0975:03C0   276 0975:03CC   278 0975:03D1   279 0975:03E2
   280 0975:03E5   281 0975:03F2   282 0975:0407   283 0975:041D
   284 0975:042E   285 0975:043F   286 0975:0454   287 0975:048A
   288 0975:04AB   289 0975:04BC   290 0975:04D1   291 0975:04E2
   295 0975:04EC   296 0975:04F0   297 0975:04F9   298 0975:0509
   299 0975:0513   300 0975:052D   301 0975:0547   302 0975:0552

Line numbers for detgus(DETGUS.PAS) segment detgus

    26 0B60:0000    27 0B60:0003    28 0B60:0020    29 0B60:003E
    34 0B60:0042    35 0B60:005D    36 0B60:0063    37 0B60:0080
    38 0B60:00D4    39 0B60:00DB    48 0B60:0100    49 0B60:0104
    50 0B60:012D    51 0B60:013C    52 0B60:0145    53 0B60:0164
    54 0B60:018B    55 0B60:019C    56 0B60:01AC    57 0B60:01B5
    58 0B60:01D4    59 0B60:01FB    60 0B60:020C    61 0B60:021F
    62 0B60:0228    63 0B60:0247    64 0B60:026E    65 0B60:027F
    66 0B60:0292    67 0B60:029B    68 0B60:02BA    69 0B60:02E1
    70 0B60:02F2    71 0B60:0305    72 0B60:030E    73 0B60:0321
    74 0B60:032B    75 0B60:0335    76 0B60:0348    77 0B60:0363
    78 0B60:036A    79 0B60:0373    80 0B60:037C    81 0B60:0384
    82 0B60:038C    83 0B60:0394    84 0B60:039D    85 0B60:03A7
    86 0B60:03B1    87 0B60:03B6

Line numbers for mcpems(MCPEMS.PAS) segment mcpems

    25 12DA:0000    26 12DA:0004    27 12DA:0019    30 12DA:0023
    31 12DA:0026    32 12DA:002B    35 12DA:002D    36 12DA:0030
    37 12DA:0035

Line numbers for emhm(EMHM.PAS) segment emhm

    96 12DE:0000    97 12DE:0004    98 12DE:0011    99 12DE:0021
   100 12DE:002E   101 12DE:0047   102 12DE:0058   103 12DE:005A
   104 12DE:0062   111 12DE:006C   112 12DE:0070   114 12DE:007F
   115 12DE:0082   116 12DE:0085   117 12DE:0087   118 12DE:0089
   119 12DE:008B   120 12DE:008E   121 12DE:0090   122 12DE:0091
   123 12DE:0094   124 12DE:0096   125 12DE:0097   126 12DE:0099
   127 12DE:009D   128 12DE:009F   131 12DE:00A1   132 12DE:00A6
   134 12DE:00A9   135 12DE:00B9   136 12DE:00CE   137 12DE:00E0
   138 12DE:00FF   139 12DE:0116   140 12DE:012A   141 12DE:0139
   142 12DE:013B   143 12DE:0149   144 12DE:0158   146 12DE:016E
   147 12DE:017C   148 12DE:018A   149 12DE:018E   150 12DE:0193
   151 12DE:019D   152 12DE:01A7   153 12DE:01B6   155 12DE:01C0
   156 12DE:01C4   157 12DE:01C9   158 12DE:01D8   159 12DE:01E2
   160 12DE:01EC   162 12DE:01FB   163 12DE:0201   164 12DE:0210
   165 12DE:021D   166 12DE:0222   170 12DE:0229   171 12DE:022D
   172 12DE:023A   173 12DE:0243   174 12DE:0247   175 12DE:024C
   176 12DE:0254   177 12DE:0265   178 12DE:0272   179 12DE:027E
   180 12DE:0280   186 12DE:0282   187 12DE:0286   188 12DE:0293
   189 12DE:02A0   190 12DE:02AA   191 12DE:02AF   192 12DE:02BE
   193 12DE:02D7   194 12DE:02EB   195 12DE:02FB   196 12DE:0343
   197 12DE:0376   198 12DE:039A   199 12DE:03A6   201 12DE:03B2
   202 12DE:03C3   203 12DE:03C6   204 12DE:03DB   205 12DE:03E8
   206 12DE:03FE   207 12DE:040F   208 12DE:0420   209 12DE:0435
   210 12DE:0456   211 12DE:047F   212 12DE:0490   213 12DE:0494
   214 12DE:049D   215 12DE:04A3   219 12DE:04AA   220 12DE:04AE
   221 12DE:04B7   222 12DE:04C3   223 12DE:04CD   224 12DE:04E7
   225 12DE:0501   226 12DE:050E   234 12DE:0512   235 12DE:0516
   236 12DE:051E   237 12DE:0523   238 12DE:0535   239 12DE:0541
   240 12DE:0554   241 12DE:0576   242 12DE:05A6   243 12DE:05C4
   244 12DE:05F1   245 12DE:0636   246 12DE:0668   247 12DE:0672
   248 12DE:067E   249 12DE:0695   250 12DE:0698   251 12DE:069B
   252 12DE:06A5   253 12DE:06B1   254 12DE:06BA   255 12DE:06BC
   256 12DE:06C8   261 12DE:06D2   262 12DE:06D6   263 12DE:06E5
   264 12DE:06F1   266 12DE:0700   267 12DE:070C   268 12DE:0710
   269 12DE:0715   270 12DE:071D   271 12DE:0725   272 12DE:0729
   273 12DE:072F   274 12DE:074A   276 12DE:0768   277 12DE:0771
   278 12DE:0776   327 12DE:077D   328 12DE:0780   329 12DE:0789
   330 12DE:078D   333 12DE:078F   334 12DE:0792   335 12DE:079B
   336 12DE:079F

Line numbers for Csupport(CSUPPORT.PAS) segment Csupport

    61 1366:0000    62 1366:0004    63 1366:0015    64 1366:0028
    65 1366:0034    69 1366:003E    70 1366:0042    71 1366:0072
    72 1366:0087    73 1366:00A3    75 1366:00B5    79 1366:00BF
    81 1366:00C3    91 1366:00F3    92 1366:0107    93 1366:0130
    94 1366:0165    95 1366:016A   162 1366:016E   164 1366:0172
   165 1366:0192   166 1366:019B   167 1366:01B3   168 1366:01E9
   170 1366:021A   171 1366:0227   172 1366:022F   173 1366:023C
   174 1366:0244   175 1366:0259   176 1366:0273   177 1366:02AB
   178 1366:02B8   179 1366:02DD   180 1366:0306   181 1366:0324
   182 1366:0360   183 1366:0391   184 1366:03A9   185 1366:03D8
   186 1366:03E5   187 1366:03F4   188 1366:041D   189 1366:0429
   190 1366:0441   191 1366:0464   192 1366:0466   193 1366:0495
   194 1366:04A2   195 1366:04AF   196 1366:04B7   197 1366:04BF
   198 1366:04C1   199 1366:04CD   200 1366:04DD   201 1366:04E5
   202 1366:04F2   203 1366:04FA   204 1366:0506   207 1366:0516
   209 1366:0519   217 1366:051B   218 1366:051F   219 1366:053A
   220 1366:0542   221 1366:054F   222 1366:0557   223 1366:0587
   224 1366:05B8   225 1366:05C8   226 1366:05EF   227 1366:05F2
   240 1366:05F6   241 1366:05FA   243 1366:05FF   244 1366:0615
   245 1366:0618   246 1366:0627   250 1366:062B   251 1366:062F
   253 1366:0634   254 1366:064A   255 1366:064D   256 1366:0664
   259 1366:0668   261 1366:066C   262 1366:066D   263 1366:0670
   264 1366:0672   265 1366:0674   266 1366:0677   267 1366:067A
   268 1366:067B   269 1366:067D   270 1366:0680   271 1366:0682
   272 1366:0686   273 1366:0688   274 1366:0689   276 1366:068B
   288 1366:0692   289 1366:0696   290 1366:06BD   291 1366:06CB
   294 1366:06CD   295 1366:06D0   296 1366:06D4   297 1366:06E9
   299 1366:06ED   300 1366:06F0   301 1366:06FE   302 1366:070B

Line numbers for gmouse(GMOUSE.PAS) segment gmouse

    48 1414:0000    49 1414:0003    50 1414:0005    51 1414:0008
    52 1414:000A    53 1414:000D    54 1414:000F    55 1414:0011
    56 1414:0015    57 1414:0019    58 1414:001B    59 1414:001F
    60 1414:0021    61 1414:0022    63 1414:0024    64 1414:0027
    65 1414:0029    66 1414:002B    67 1414:002D    68 1414:0031
    70 1414:0035    75 1414:0039    77 1414:003C    78 1414:003F
    80 1414:0041    81 1414:004F    84 1414:00B7    85 1414:00D2
    86 1414:00D7    87 1414:00E1    88 1414:00E4    89 1414:010F
    90 1414:013A    91 1414:0165    92 1414:018F    93 1414:01B9
    94 1414:01E3    96 1414:020B    97 1414:0213   105 1414:0236
   106 1414:023A   107 1414:024A   108 1414:025A   109 1414:0268
   110 1414:027B   111 1414:028F   112 1414:02A2   113 1414:02B6
   114 1414:02C9   115 1414:02D4   116 1414:02DE   117 1414:0303
   118 1414:030C   119 1414:031C   121 1414:0339   122 1414:033C
   125 1414:0350   126 1414:0355   127 1414:0363   128 1414:0370
   130 1414:037B

Program entry point at 0000:34D2
